target datalayout = "e-m:e-p270:32:32-p271:32:32-p272:64:64-i64:64-i128:128-f80:128-n8:16:32:64-S128"
target triple = "x86_64-pc-linux-gnu"

%struct.expert_field = type { i32, i32 }

@hf_pcep_obj_monitoring_flags_reserved = internal global i32 0, align 4
@hf_pcep_obj_monitoring_flags_l = internal global i32 0, align 4
@hf_pcep_obj_monitoring_flags_g = internal global i32 0, align 4
@hf_pcep_obj_monitoring_flags_p = internal global i32 0, align 4
@hf_pcep_obj_monitoring_flags_c = internal global i32 0, align 4
@hf_pcep_obj_monitoring_flags_i = internal global i32 0, align 4
@hf_pcep_obj_monitoring_monitoring_id_number = internal global i32 0, align 4
@hf_pcep_obj_monitoring_reserved = internal global i32 0, align 4
@hf_pcep_obj_monitoring_flags = internal global i32 0, align 4
@ett_pcep_obj_monitoring = internal global i32 0, align 4
@ei_pcep_subobject_bad_length = internal global %struct.expert_field zeroinitializer, align 4
@.str.1390 = private unnamed_addr constant [49 x i8] c"Bad MONITORING object length %u, should be >= %u\00", align 1

; Function Attrs: null_pointer_is_valid sspstrong uwtable
define internal void @dissect_pcep_tlvs(ptr noundef %0, ptr noundef %1, i32 noundef %2, i32 noundef %3, i32 noundef %4) #0 {
  %6 = alloca ptr, align 8
  %7 = alloca ptr, align 8
  %8 = alloca i32, align 4
  %9 = alloca i32, align 4
  %10 = alloca i32, align 4
  store ptr %0, ptr %6, align 8
  store ptr %1, ptr %7, align 8
  store i32 %2, ptr %8, align 4
  store i32 %3, ptr %9, align 4
  store i32 %4, ptr %10, align 4
  %11 = load ptr, ptr %6, align 8
  %12 = load ptr, ptr %7, align 8
  %13 = load i32, ptr %8, align 4
  %14 = load i32, ptr %9, align 4
  %15 = load i32, ptr %10, align 4
  call void @dissect_pcep_tlvs_with_scope(ptr noundef %11, ptr noundef %12, i32 noundef %13, i32 noundef %14, i32 noundef %15, i16 noundef zeroext 0)
  ret void
}

; Function Attrs: null_pointer_is_valid sspstrong uwtable
define internal void @dissect_pcep_obj_monitoring(ptr noundef %0, ptr noundef %1, ptr noundef %2, i32 noundef %3, i32 noundef %4, i32 noundef %5, i32 noundef %6) #0 {
  %8 = alloca ptr, align 8
  %9 = alloca ptr, align 8
  %10 = alloca ptr, align 8
  %11 = alloca i32, align 4
  %12 = alloca i32, align 4
  %13 = alloca i32, align 4
  %14 = alloca i32, align 4
  %15 = alloca ptr, align 8
  %16 = alloca ptr, align 8
  %17 = alloca i32, align 4
  store ptr %0, ptr %8, align 8
  store ptr %1, ptr %9, align 8
  store ptr %2, ptr %10, align 8
  store i32 %3, ptr %11, align 4
  store i32 %4, ptr %12, align 4
  store i32 %5, ptr %13, align 4
  store i32 %6, ptr %14, align 4
  call void @llvm.lifetime.start.p0(i64 8, ptr %15) #4
  call void @llvm.lifetime.start.p0(i64 8, ptr %16) #4
  %18 = load i32, ptr %12, align 4
  %19 = icmp slt i32 %18, 12
  br i1 %19, label %20, label %28

20:                                               ; preds = %7
  %21 = load ptr, ptr %8, align 8
  %22 = load ptr, ptr %9, align 8
  %23 = load ptr, ptr %10, align 8
  %24 = load i32, ptr %11, align 4
  %25 = load i32, ptr %12, align 4
  %26 = load i32, ptr %12, align 4
  %27 = call ptr (ptr, ptr, ptr, ptr, i32, i32, ptr, ...) @proto_tree_add_expert_format(ptr noundef %21, ptr noundef %22, ptr noundef @ei_pcep_subobject_bad_length, ptr noundef %23, i32 noundef %24, i32 noundef %25, ptr noundef @.str.1390, i32 noundef %26, i32 noundef 12)
  store i32 1, ptr %17, align 4
  br label %94

28:                                               ; preds = %7
  %29 = load ptr, ptr %8, align 8
  %30 = load i32, ptr @hf_pcep_obj_monitoring_reserved, align 4
  %31 = load ptr, ptr %10, align 8
  %32 = load i32, ptr %11, align 4
  %33 = call ptr @proto_tree_add_item(ptr noundef %29, i32 noundef %30, ptr noundef %31, i32 noundef %32, i32 noundef 1, i32 noundef 0)
  %34 = load ptr, ptr %8, align 8
  %35 = load i32, ptr @hf_pcep_obj_monitoring_flags, align 4
  %36 = load ptr, ptr %10, align 8
  %37 = load i32, ptr %11, align 4
  %38 = add i32 %37, 1
  %39 = call ptr @proto_tree_add_item(ptr noundef %34, i32 noundef %35, ptr noundef %36, i32 noundef %38, i32 noundef 3, i32 noundef 0)
  store ptr %39, ptr %15, align 8
  %40 = load ptr, ptr %15, align 8
  %41 = load i32, ptr @ett_pcep_obj_monitoring, align 4
  %42 = call ptr @proto_item_add_subtree(ptr noundef %40, i32 noundef %41)
  store ptr %42, ptr %16, align 8
  %43 = load ptr, ptr %16, align 8
  %44 = load i32, ptr @hf_pcep_obj_monitoring_flags_reserved, align 4
  %45 = load ptr, ptr %10, align 8
  %46 = load i32, ptr %11, align 4
  %47 = add i32 %46, 1
  %48 = call ptr @proto_tree_add_item(ptr noundef %43, i32 noundef %44, ptr noundef %45, i32 noundef %47, i32 noundef 3, i32 noundef 0)
  %49 = load ptr, ptr %16, align 8
  %50 = load i32, ptr @hf_pcep_obj_monitoring_flags_i, align 4
  %51 = load ptr, ptr %10, align 8
  %52 = load i32, ptr %11, align 4
  %53 = add i32 %52, 1
  %54 = call ptr @proto_tree_add_item(ptr noundef %49, i32 noundef %50, ptr noundef %51, i32 noundef %53, i32 noundef 3, i32 noundef 0)
  %55 = load ptr, ptr %16, align 8
  %56 = load i32, ptr @hf_pcep_obj_monitoring_flags_c, align 4
  %57 = load ptr, ptr %10, align 8
  %58 = load i32, ptr %11, align 4
  %59 = add i32 %58, 1
  %60 = call ptr @proto_tree_add_item(ptr noundef %55, i32 noundef %56, ptr noundef %57, i32 noundef %59, i32 noundef 3, i32 noundef 0)
  %61 = load ptr, ptr %16, align 8
  %62 = load i32, ptr @hf_pcep_obj_monitoring_flags_p, align 4
  %63 = load ptr, ptr %10, align 8
  %64 = load i32, ptr %11, align 4
  %65 = add i32 %64, 1
  %66 = call ptr @proto_tree_add_item(ptr noundef %61, i32 noundef %62, ptr noundef %63, i32 noundef %65, i32 noundef 3, i32 noundef 0)
  %67 = load ptr, ptr %16, align 8
  %68 = load i32, ptr @hf_pcep_obj_monitoring_flags_g, align 4
  %69 = load ptr, ptr %10, align 8
  %70 = load i32, ptr %11, align 4
  %71 = add i32 %70, 1
  %72 = call ptr @proto_tree_add_item(ptr noundef %67, i32 noundef %68, ptr noundef %69, i32 noundef %71, i32 noundef 3, i32 noundef 0)
  %73 = load ptr, ptr %16, align 8
  %74 = load i32, ptr @hf_pcep_obj_monitoring_flags_l, align 4
  %75 = load ptr, ptr %10, align 8
  %76 = load i32, ptr %11, align 4
  %77 = add i32 %76, 1
  %78 = call ptr @proto_tree_add_item(ptr noundef %73, i32 noundef %74, ptr noundef %75, i32 noundef %77, i32 noundef 3, i32 noundef 0)
  %79 = load ptr, ptr %8, align 8
  %80 = load i32, ptr @hf_pcep_obj_monitoring_monitoring_id_number, align 4
  %81 = load ptr, ptr %10, align 8
  %82 = load i32, ptr %11, align 4
  %83 = add i32 %82, 4
  %84 = call ptr @proto_tree_add_item(ptr noundef %79, i32 noundef %80, ptr noundef %81, i32 noundef %83, i32 noundef 4, i32 noundef 0)
  %85 = load i32, ptr %11, align 4
  %86 = add i32 %85, 8
  store i32 %86, ptr %11, align 4
  %87 = load i32, ptr %12, align 4
  %88 = sub i32 %87, 12
  store i32 %88, ptr %12, align 4
  %89 = load ptr, ptr %8, align 8
  %90 = load ptr, ptr %10, align 8
  %91 = load i32, ptr %11, align 4
  %92 = load i32, ptr %12, align 4
  %93 = load i32, ptr @ett_pcep_obj_monitoring, align 4
  call void @dissect_pcep_tlvs(ptr noundef %89, ptr noundef %90, i32 noundef %91, i32 noundef %92, i32 noundef %93)
  store i32 0, ptr %17, align 4
  br label %94

94:                                               ; preds = %28, %20
  call void @llvm.lifetime.end.p0(i64 8, ptr %16) #4
  call void @llvm.lifetime.end.p0(i64 8, ptr %15) #4
  %95 = load i32, ptr %17, align 4
  switch i32 %95, label %97 [
    i32 0, label %96
    i32 1, label %96
  ]

96:                                               ; preds = %94, %94
  ret void

97:                                               ; preds = %94
  unreachable
}