; Function Attrs: null_pointer_is_valid sspstrong uwtable
define internal void @dissect_pcep_obj_monitoring(ptr noundef %0, ptr noundef %1, ptr noundef %2, i32 noundef %3, i32 noundef %4, i32 %5, i32 %6) #0 {
  %8 = icmp slt i32 %4, 12
  br i1 %8, label %9, label %11

9:                                                ; preds = %7
  %10 = tail call ptr (ptr, ptr, ptr, ptr, i32, i32, ptr, ...) @proto_tree_add_expert_format(ptr noundef %0, ptr noundef %1, ptr noundef nonnull @ei_pcep_subobject_bad_length, ptr noundef %2, i32 noundef %3, i32 noundef %4, ptr noundef nonnull @.str.1390, i32 noundef %4, i32 noundef 12)
  br label %37

11:                                               ; preds = %7
  %12 = load i32, ptr @hf_pcep_obj_monitoring_reserved, align 4
  %13 = tail call ptr @proto_tree_add_item(ptr noundef %0, i32 noundef %12, ptr noundef %2, i32 noundef %3, i32 noundef 1, i32 noundef 0)
  %14 = load i32, ptr @hf_pcep_obj_monitoring_flags, align 4
  %15 = add i32 %3, 1
  %16 = tail call ptr @proto_tree_add_item(ptr noundef %0, i32 noundef %14, ptr noundef %2, i32 noundef %15, i32 noundef 3, i32 noundef 0)
  %17 = load i32, ptr @ett_pcep_obj_monitoring, align 4
  %18 = tail call ptr @proto_item_add_subtree(ptr noundef %16, i32 noundef %17)
  %19 = load i32, ptr @hf_pcep_obj_monitoring_flags_reserved, align 4
  %20 = tail call ptr @proto_tree_add_item(ptr noundef %18, i32 noundef %19, ptr noundef %2, i32 noundef %15, i32 noundef 3, i32 noundef 0)
  %21 = load i32, ptr @hf_pcep_obj_monitoring_flags_i, align 4
  %22 = tail call ptr @proto_tree_add_item(ptr noundef %18, i32 noundef %21, ptr noundef %2, i32 noundef %15, i32 noundef 3, i32 noundef 0)
  %23 = load i32, ptr @hf_pcep_obj_monitoring_flags_c, align 4
  %24 = tail call ptr @proto_tree_add_item(ptr noundef %18, i32 noundef %23, ptr noundef %2, i32 noundef %15, i32 noundef 3, i32 noundef 0)
  %25 = load i32, ptr @hf_pcep_obj_monitoring_flags_p, align 4
  %26 = tail call ptr @proto_tree_add_item(ptr noundef %18, i32 noundef %25, ptr noundef %2, i32 noundef %15, i32 noundef 3, i32 noundef 0)
  %27 = load i32, ptr @hf_pcep_obj_monitoring_flags_g, align 4
  %28 = tail call ptr @proto_tree_add_item(ptr noundef %18, i32 noundef %27, ptr noundef %2, i32 noundef %15, i32 noundef 3, i32 noundef 0)
  %29 = load i32, ptr @hf_pcep_obj_monitoring_flags_l, align 4
  %30 = tail call ptr @proto_tree_add_item(ptr noundef %18, i32 noundef %29, ptr noundef %2, i32 noundef %15, i32 noundef 3, i32 noundef 0)
  %31 = load i32, ptr @hf_pcep_obj_monitoring_monitoring_id_number, align 4
  %32 = add i32 %3, 4
  %33 = tail call ptr @proto_tree_add_item(ptr noundef %0, i32 noundef %31, ptr noundef %2, i32 noundef %32, i32 noundef 4, i32 noundef 0)
  %34 = add i32 %3, 8
  %35 = add nsw i32 %4, -12
  %36 = load i32, ptr @ett_pcep_obj_monitoring, align 4
  tail call fastcc void @dissect_pcep_tlvs_with_scope(ptr noundef %0, ptr noundef %2, i32 noundef %34, i32 noundef range(i32 0, 2147483640) %35, i32 noundef %36, i16 noundef zeroext 0)
  br label %37

37:                                               ; preds = %11, %9
  ret void
}